Certificate:
    Data:
        Version: 3 (0x2)
        Serial Number: 4097 (0x1001)
        Signature Algorithm: sha1WithRSAEncryption
        Issuer: C=US, ST=Maryland, L=CollegePark, O=UMD, OU=CE, CN=Emmanuel/emailAddress=etaylor5@umd.edu
        Validity
            Not Before: Oct 17 00:49:51 2014 GMT
            Not After : Oct 17 00:49:51 2015 GMT
        Subject: C=US, ST=Maryland, L=CollegePark, O=UMD, OU=CE, CN=PKILabServer.com/emailAddress=etaylor5@umd.edu
        Subject Public Key Info:
            Public Key Algorithm: rsaEncryption
            RSA Public Key: (1024 bit)
                Modulus (1024 bit):
                    00:b7:ad:a8:f4:e6:14:9b:4f:50:bd:61:ab:cb:cb:
                    0d:32:bc:91:10:00:1a:00:eb:de:9b:23:e2:bb:fd:
                    b3:a1:a0:94:6c:ac:db:6b:c7:3b:14:cb:b0:a6:dd:
                    01:54:c4:c2:cf:34:80:a9:8f:fa:e4:aa:ff:3e:f2:
                    e5:7e:4b:45:ff:40:d4:2c:bf:3b:ea:ac:fe:48:2d:
                    d7:f0:0c:bb:1f:e4:69:a9:88:7c:10:d0:74:5e:ba:
                    ea:93:33:7b:4e:49:09:b0:da:a0:11:57:9f:df:7d:
                    93:4e:f7:28:0b:c1:6a:a2:1c:bd:5c:bc:d5:42:f1:
                    bd:3e:bc:19:10:c9:60:d2:61
                Exponent: 65537 (0x10001)
        X509v3 extensions:
            X509v3 Basic Constraints: 
                CA:FALSE
            Netscape Comment: 
                OpenSSL Generated Certificate
            X509v3 Subject Key Identifier: 
                88:A5:05:BB:8F:30:7E:27:05:E9:92:9A:C7:D8:80:B1:26:25:A2:32
            X509v3 Authority Key Identifier: 
                keyid:C3:BE:85:80:DB:B4:D8:7E:B0:B3:96:80:C5:26:6D:2C:76:B1:73:DE

    Signature Algorithm: sha1WithRSAEncryption
        50:45:e1:a4:5a:3e:f0:78:86:10:c1:44:1e:72:d6:a6:cf:a9:
        67:25:8d:d3:06:f6:41:21:48:cc:ad:cc:af:f2:34:c1:f4:56:
        90:f4:bd:2a:56:4a:89:1f:9c:06:ab:76:75:a7:64:11:52:35:
        e4:7b:47:16:48:dc:92:41:78:51:9e:f1:6c:20:1a:85:26:c7:
        9c:2f:77:6a:3b:19:69:26:9d:ec:69:ab:d6:ed:07:5d:37:e1:
        ee:42:19:ac:7b:1e:2b:3c:d7:16:9d:70:9c:fe:39:fd:e7:8b:
        8a:da:d5:eb:f6:bf:62:01:a9:5f:b9:f6:84:f1:6d:54:92:e2:
        d9:6d
-----BEGIN CERTIFICATE-----
MIIDBjCCAm+gAwIBAgICEAEwDQYJKoZIhvcNAQEFBQAwgYUxCzAJBgNVBAYTAlVT
MREwDwYDVQQIEwhNYXJ5bGFuZDEUMBIGA1UEBxMLQ29sbGVnZVBhcmsxDDAKBgNV
BAoTA1VNRDELMAkGA1UECxMCQ0UxETAPBgNVBAMTCEVtbWFudWVsMR8wHQYJKoZI
hvcNAQkBFhBldGF5bG9yNUB1bWQuZWR1MB4XDTE0MTAxNzAwNDk1MVoXDTE1MTAx
NzAwNDk1MVowgY0xCzAJBgNVBAYTAlVTMREwDwYDVQQIEwhNYXJ5bGFuZDEUMBIG
A1UEBxMLQ29sbGVnZVBhcmsxDDAKBgNVBAoTA1VNRDELMAkGA1UECxMCQ0UxGTAX
BgNVBAMTEFBLSUxhYlNlcnZlci5jb20xHzAdBgkqhkiG9w0BCQEWEGV0YXlsb3I1
QHVtZC5lZHUwgZ8wDQYJKoZIhvcNAQEBBQADgY0AMIGJAoGBALetqPTmFJtPUL1h
q8vLDTK8kRAAGgDr3psj4rv9s6GglGys22vHOxTLsKbdAVTEws80gKmP+uSq/z7y
5X5LRf9A1Cy/O+qs/kgt1/AMux/kaamIfBDQdF666pMze05JCbDaoBFXn999k073
KAvBaqIcvVy81ULxvT68GRDJYNJhAgMBAAGjezB5MAkGA1UdEwQCMAAwLAYJYIZI
AYb4QgENBB8WHU9wZW5TU0wgR2VuZXJhdGVkIENlcnRpZmljYXRlMB0GA1UdDgQW
BBSIpQW7jzB+JwXpkprH2ICxJiWiMjAfBgNVHSMEGDAWgBTDvoWA27TYfrCzloDF
Jm0sdrFz3jANBgkqhkiG9w0BAQUFAAOBgQBQReGkWj7weIYQwUQectamz6lnJY3T
BvZBIUjMrcyv8jTB9FaQ9L0qVkqJH5wGq3Z1p2QRUjXke0cWSNySQXhRnvFsIBqF
JsecL3dqOxlpJp3saavW7QddN+HuQhmsex4rPNcWnXCc/jn954uK2tXr9r9iAalf
ufaE8W1UkuLZbQ==
-----END CERTIFICATE-----
