-----BEGIN RSA PRIVATE KEY-----
Proc-Type: 4,ENCRYPTED
DEK-Info: DES-EDE3-CBC,DB873AB22B5C79E2

SrNSLwl9NZuBd0O4lQm82UTSSyqpqYIX/m2/1DDmfrOaRGugoiBhHPUa+CKibswX
c0RLKUwcFOD8cvXT3HE3csgyhV1KA8DfzwaVsq8W079bFAEN4KgpfKRBo0rI3IU5
0o4tq26yCJ0jVGMy59JZeswUI/tGBXzcTImCB5sR96BXZwSp8huQqc8bYQqgG/9w
LfoKvTU81bAIY7O88ChRNYXns5wZT1cn6fDZv7Oq0eCqE8XNtrpCGGXvyFbO1PFX
tkEqaSQHlEUXRaM742eQR5FzHFB6s3z0m7HQrWoy/Me9QtfJcDUf1XEG128HaLjY
fkq9virnokVhCqqpKc8dzArmf3QOCFVNRff5C60VTQ0ZhJHEZCRqZbIdJ8h1RnKu
9D6+cBK9maHcDd5WTIUzKmxRq8fGGuBxb8KKGWIrE2/AqjFhMUit9XnpeoOOySBD
+jwSio3V1sol5q2+2Aiggz+4OcfYMEtSJQP0f0icIohiug1fB/ReG83yqkcVw+AD
50y1qVIbTI55p6VeH84ctOVodojPwWrYli8eN5Fj1MmKq39rby+0WOxPFfpnx+aJ
fyynlzNH+kdpuFMyjTm1ChqFge+AwdsZBkZu2/JWPcYG7J7SvYCQfxPIsC0InW9p
eTtM8gVJ0sUyCChGAjTDiIsePY0DxUglCmfkjMKpm23xm7vzHo73OB33B2h6bWo+
ldFd0KYYxeiUmzVi4d1PaE6Nz17KtydhSCtEQLR4FdaNrwE0f9JcVd44LwjKM4wy
sV5zMRA9tDWHUUd1FKXTD/KNKSrnAi4Rjxl57vxvcvDbFiOD89RWYg==
-----END RSA PRIVATE KEY-----
Certificate:
    Data:
        Version: 3 (0x2)
        Serial Number: 4096 (0x1000)
        Signature Algorithm: sha1WithRSAEncryption
        Issuer: C=US, ST=Maryland, L=CollegePark, O=UMD, OU=CE, CN=Emmanuel/emailAddress=etaylor5@umd.edu
        Validity
            Not Before: Oct  8 03:04:54 2014 GMT
            Not After : Oct  8 03:04:54 2015 GMT
        Subject: C=US, ST=Maryland, L=CollegePark, O=UMD, OU=CE, CN=PKILabServer.com/emailAddress=etaylor5@umd.edu
        Subject Public Key Info:
            Public Key Algorithm: rsaEncryption
            RSA Public Key: (1024 bit)
                Modulus (1024 bit):
                    00:b7:ad:a8:f4:e6:14:9b:4f:50:bd:61:ab:cb:cb:
                    0d:32:bc:91:10:00:1a:00:eb:de:9b:23:e2:bb:fd:
                    b3:a1:a0:94:6c:ac:db:6b:c7:3b:14:cb:b0:a6:dd:
                    01:54:c4:c2:cf:34:80:a9:8f:fa:e4:aa:ff:3e:f2:
                    e5:7e:4b:45:ff:40:d4:2c:bf:3b:ea:ac:fe:48:2d:
                    d7:f0:0c:bb:1f:e4:69:a9:88:7c:10:d0:74:5e:ba:
                    ea:93:33:7b:4e:49:09:b0:da:a0:11:57:9f:df:7d:
                    93:4e:f7:28:0b:c1:6a:a2:1c:bd:5c:bc:d5:42:f1:
                    bd:3e:bc:19:10:c9:60:d2:61
                Exponent: 65537 (0x10001)
        X509v3 extensions:
            X509v3 Basic Constraints: 
                CA:FALSE
            Netscape Comment: 
                OpenSSL Generated Certificate
            X509v3 Subject Key Identifier: 
                88:A5:05:BB:8F:30:7E:27:05:E9:92:9A:C7:D8:80:B1:26:25:A2:32
            X509v3 Authority Key Identifier: 
                keyid:C3:BE:85:80:DB:B4:D8:7E:B0:B3:96:80:C5:26:6D:2C:76:B1:73:DE

    Signature Algorithm: sha1WithRSAEncryption
        46:f0:fc:ae:2a:52:95:b9:b5:38:f0:4e:73:b2:f1:2f:3c:35:
        bb:7b:ac:af:16:66:d5:e5:dd:0d:94:d8:67:70:03:42:24:e7:
        c6:5a:ec:6f:4e:b6:cd:44:f0:28:f8:6d:4e:73:f5:33:29:82:
        fb:7c:db:d1:2e:1f:ef:c7:45:94:ed:6f:90:33:19:02:da:5e:
        05:21:78:1f:84:5c:8c:f2:31:dd:77:13:31:74:a8:a1:e7:0d:
        f0:be:7e:cc:45:6f:92:5b:81:fe:41:8e:e9:08:37:95:1c:17:
        4b:d6:99:27:3a:3d:09:b0:75:6a:42:5b:43:2c:56:7b:b0:81:
        bf:b8
-----BEGIN CERTIFICATE-----
MIIDBjCCAm+gAwIBAgICEAAwDQYJKoZIhvcNAQEFBQAwgYUxCzAJBgNVBAYTAlVT
MREwDwYDVQQIEwhNYXJ5bGFuZDEUMBIGA1UEBxMLQ29sbGVnZVBhcmsxDDAKBgNV
BAoTA1VNRDELMAkGA1UECxMCQ0UxETAPBgNVBAMTCEVtbWFudWVsMR8wHQYJKoZI
hvcNAQkBFhBldGF5bG9yNUB1bWQuZWR1MB4XDTE0MTAwODAzMDQ1NFoXDTE1MTAw
ODAzMDQ1NFowgY0xCzAJBgNVBAYTAlVTMREwDwYDVQQIEwhNYXJ5bGFuZDEUMBIG
A1UEBxMLQ29sbGVnZVBhcmsxDDAKBgNVBAoTA1VNRDELMAkGA1UECxMCQ0UxGTAX
BgNVBAMTEFBLSUxhYlNlcnZlci5jb20xHzAdBgkqhkiG9w0BCQEWEGV0YXlsb3I1
QHVtZC5lZHUwgZ8wDQYJKoZIhvcNAQEBBQADgY0AMIGJAoGBALetqPTmFJtPUL1h
q8vLDTK8kRAAGgDr3psj4rv9s6GglGys22vHOxTLsKbdAVTEws80gKmP+uSq/z7y
5X5LRf9A1Cy/O+qs/kgt1/AMux/kaamIfBDQdF666pMze05JCbDaoBFXn999k073
KAvBaqIcvVy81ULxvT68GRDJYNJhAgMBAAGjezB5MAkGA1UdEwQCMAAwLAYJYIZI
AYb4QgENBB8WHU9wZW5TU0wgR2VuZXJhdGVkIENlcnRpZmljYXRlMB0GA1UdDgQW
BBSIpQW7jzB+JwXpkprH2ICxJiWiMjAfBgNVHSMEGDAWgBTDvoWA27TYfrCzloDF
Jm0sdrFz3jANBgkqhkiG9w0BAQUFAAOBgQBG8PyuKlKVubU48E5zsvEvPDW7e6yv
FmbV5d0NlNhncANCJOfGWuxvTrbNRPAo+G1Oc/UzKYL7fNvRLh/vx0WU7W+QMxkC
2l4FIXgfhFyM8jHddxMxdKih5w3wvn7MRW+SW4H+QY7pCDeVHBdL1pknOj0JsHVq
QltDLFZ7sIG/uA==
-----END CERTIFICATE-----
